target datalayout = "e-m:e-p270:32:32-p271:32:32-p272:64:64-i64:64-i128:128-f80:128-n8:16:32:64-S128"
target triple = "x86_64-pc-linux-gnu"

%struct.XLogRecordBuffer = type { i64, i64, ptr }
%struct.LogicalDecodingContext = type { ptr, ptr, ptr, ptr, ptr, i8, %struct.OutputPluginCallbacks, %struct.OutputPluginOptions, ptr, ptr, ptr, ptr, ptr, ptr, ptr, i8, i8, i8, i8, i8, i64, i32, i8, i8 }
%struct.OutputPluginCallbacks = type { ptr, ptr, ptr, ptr, ptr, ptr, ptr, ptr, ptr, ptr, ptr, ptr, ptr, ptr, ptr, ptr, ptr, ptr, ptr, ptr, ptr }
%struct.OutputPluginOptions = type { i32, i8 }
%struct.XLogReaderState = type { %struct.XLogReaderRoutine, i64, ptr, i64, i64, i64, i64, i64, i64, i64, i64, ptr, ptr, i64, i8, ptr, ptr, ptr, ptr, ptr, i32, %struct.WALSegmentContext, %struct.WALOpenSegment, i32, i64, i32, i64, i32, i64, i32, ptr, i32, ptr, i8, i8 }
%struct.XLogReaderRoutine = type { ptr, ptr, ptr }
%struct.WALSegmentContext = type { [1024 x i8], i32 }
%struct.WALOpenSegment = type { i32, i64, i32 }
%struct.DecodedXLogRecord = type { i64, i8, ptr, i64, i64, %struct.XLogRecord, i16, i32, ptr, i32, i32, [0 x %struct.DecodedBkpBlock] }
%struct.XLogRecord = type { i32, i32, i64, i8, i8, i32 }
%struct.DecodedBkpBlock = type { i8, %struct.RelFileLocator, i32, i32, i32, i8, i8, i8, ptr, i16, i16, i16, i8, i8, ptr, i16, i16 }
%struct.RelFileLocator = type { i32, i32, i32 }
%struct.xl_heap_multi_insert = type { i8, i16, [0 x i16] }
%struct.ReplicationSlot = type { i8, i8, i32, i8, i8, i32, i32, %struct.ReplicationSlotPersistentData, %struct.LWLock, %struct.ConditionVariable, i32, i64, i64, i64, i64, i64 }
%struct.ReplicationSlotPersistentData = type { %struct.nameData, i32, i32, i32, i32, i64, i32, i64, i64, i8, %struct.nameData, i8, i8 }
%struct.nameData = type { [64 x i8] }
%struct.LWLock = type { i16, %struct.pg_atomic_uint32, %struct.proclist_head }
%struct.pg_atomic_uint32 = type { i32 }
%struct.proclist_head = type { i32, i32 }
%struct.ConditionVariable = type { i8, %struct.proclist_head }
%struct.ReorderBufferChange = type { i64, i32, ptr, i16, %union.anon, %struct.dlist_node }
%union.anon = type { %struct.anon }
%struct.anon = type { %struct.RelFileLocator, i8, ptr, ptr }
%struct.dlist_node = type { ptr, ptr }
%struct.xl_multi_insert_tuple = type { i16, i16, i16, i8 }
%struct.HeapTupleData = type { i32, %struct.ItemPointerData, i32, ptr }
%struct.ItemPointerData = type { %struct.BlockIdData, i16 }
%struct.BlockIdData = type { i16, i16 }
%struct.HeapTupleHeaderData = type { %union.anon.4, %struct.ItemPointerData, i16, i16, i8, [0 x i8] }
%union.anon.4 = type { %struct.HeapTupleFields }
%struct.HeapTupleFields = type { i32, i32, %union.anon.5 }
%union.anon.5 = type { i32 }

; Function Attrs: inlinehint nounwind uwtable
define internal void @BlockIdSet(ptr noundef %0, i32 noundef %1) #3 {
  %3 = alloca ptr, align 8
  %4 = alloca i32, align 4
  store ptr %0, ptr %3, align 8
  store i32 %1, ptr %4, align 4
  %5 = load i32, ptr %4, align 4
  %6 = lshr i32 %5, 16
  %7 = trunc i32 %6 to i16
  %8 = load ptr, ptr %3, align 8
  %9 = getelementptr inbounds nuw %struct.BlockIdData, ptr %8, i32 0, i32 0
  store i16 %7, ptr %9, align 2
  %10 = load i32, ptr %4, align 4
  %11 = and i32 %10, 65535
  %12 = trunc i32 %11 to i16
  %13 = load ptr, ptr %3, align 8
  %14 = getelementptr inbounds nuw %struct.BlockIdData, ptr %13, i32 0, i32 1
  store i16 %12, ptr %14, align 2
  ret void
}

; Function Attrs: inlinehint nounwind uwtable
define internal void @ItemPointerSetInvalid(ptr noundef %0) #3 {
  %2 = alloca ptr, align 8
  store ptr %0, ptr %2, align 8
  %3 = load ptr, ptr %2, align 8
  %4 = getelementptr inbounds nuw %struct.ItemPointerData, ptr %3, i32 0, i32 0
  call void @BlockIdSet(ptr noundef %4, i32 noundef -1)
  %5 = load ptr, ptr %2, align 8
  %6 = getelementptr inbounds nuw %struct.ItemPointerData, ptr %5, i32 0, i32 1
  store i16 0, ptr %6, align 2
  ret void
}

; Function Attrs: inlinehint nounwind uwtable
define internal zeroext i1 @FilterByOrigin(ptr noundef %0, i16 noundef zeroext %1) #3 {
  %3 = alloca i1, align 1
  %4 = alloca ptr, align 8
  %5 = alloca i16, align 2
  store ptr %0, ptr %4, align 8
  store i16 %1, ptr %5, align 2
  %6 = load ptr, ptr %4, align 8
  %7 = getelementptr inbounds nuw %struct.LogicalDecodingContext, ptr %6, i32 0, i32 6
  %8 = getelementptr inbounds nuw %struct.OutputPluginCallbacks, ptr %7, i32 0, i32 6
  %9 = load ptr, ptr %8, align 8
  %10 = icmp eq ptr %9, null
  br i1 %10, label %11, label %12

11:                                               ; preds = %2
  store i1 false, ptr %3, align 1
  br label %16

12:                                               ; preds = %2
  %13 = load ptr, ptr %4, align 8
  %14 = load i16, ptr %5, align 2
  %15 = call zeroext i1 @filter_by_origin_cb_wrapper(ptr noundef %13, i16 noundef zeroext %14)
  store i1 %15, ptr %3, align 1
  br label %16

16:                                               ; preds = %12, %11
  %17 = load i1, ptr %3, align 1
  ret i1 %17
}

; Function Attrs: nounwind uwtable
define internal void @DecodeMultiInsert(ptr noundef %0, ptr noundef %1) #0 {
  %3 = alloca ptr, align 8
  %4 = alloca ptr, align 8
  %5 = alloca ptr, align 8
  %6 = alloca ptr, align 8
  %7 = alloca i32, align 4
  %8 = alloca ptr, align 8
  %9 = alloca ptr, align 8
  %10 = alloca i64, align 8
  %11 = alloca %struct.RelFileLocator, align 4
  %12 = alloca i32, align 4
  %13 = alloca ptr, align 8
  %14 = alloca ptr, align 8
  %15 = alloca i32, align 4
  %16 = alloca ptr, align 8
  %17 = alloca ptr, align 8
  store ptr %0, ptr %3, align 8
  store ptr %1, ptr %4, align 8
  call void @llvm.lifetime.start.p0(i64 8, ptr %5) #8
  %18 = load ptr, ptr %4, align 8
  %19 = getelementptr inbounds nuw %struct.XLogRecordBuffer, ptr %18, i32 0, i32 2
  %20 = load ptr, ptr %19, align 8
  store ptr %20, ptr %5, align 8
  call void @llvm.lifetime.start.p0(i64 8, ptr %6) #8
  call void @llvm.lifetime.start.p0(i64 4, ptr %7) #8
  call void @llvm.lifetime.start.p0(i64 8, ptr %8) #8
  call void @llvm.lifetime.start.p0(i64 8, ptr %9) #8
  call void @llvm.lifetime.start.p0(i64 8, ptr %10) #8
  call void @llvm.lifetime.start.p0(i64 12, ptr %11) #8
  %21 = load ptr, ptr %5, align 8
  %22 = getelementptr inbounds nuw %struct.XLogReaderState, ptr %21, i32 0, i32 11
  %23 = load ptr, ptr %22, align 8
  %24 = getelementptr inbounds nuw %struct.DecodedXLogRecord, ptr %23, i32 0, i32 8
  %25 = load ptr, ptr %24, align 8
  store ptr %25, ptr %6, align 8
  %26 = load ptr, ptr %6, align 8
  %27 = getelementptr inbounds nuw %struct.xl_heap_multi_insert, ptr %26, i32 0, i32 0
  %28 = load i8, ptr %27, align 2
  %29 = zext i8 %28 to i32
  %30 = and i32 %29, 8
  %31 = icmp ne i32 %30, 0
  br i1 %31, label %33, label %32

32:                                               ; preds = %2
  store i32 1, ptr %12, align 4
  br label %186

33:                                               ; preds = %2
  %34 = load ptr, ptr %5, align 8
  call void @XLogRecGetBlockTag(ptr noundef %34, i8 noundef zeroext 0, ptr noundef %11, ptr noundef null, ptr noundef null)
  %35 = getelementptr inbounds nuw %struct.RelFileLocator, ptr %11, i32 0, i32 1
  %36 = load i32, ptr %35, align 4
  %37 = load ptr, ptr %3, align 8
  %38 = getelementptr inbounds nuw %struct.LogicalDecodingContext, ptr %37, i32 0, i32 1
  %39 = load ptr, ptr %38, align 8
  %40 = getelementptr inbounds nuw %struct.ReplicationSlot, ptr %39, i32 0, i32 7
  %41 = getelementptr inbounds nuw %struct.ReplicationSlotPersistentData, ptr %40, i32 0, i32 1
  %42 = load i32, ptr %41, align 8
  %43 = icmp ne i32 %36, %42
  br i1 %43, label %44, label %45

44:                                               ; preds = %33
  store i32 1, ptr %12, align 4
  br label %186

45:                                               ; preds = %33
  %46 = load ptr, ptr %3, align 8
  %47 = load ptr, ptr %5, align 8
  %48 = getelementptr inbounds nuw %struct.XLogReaderState, ptr %47, i32 0, i32 11
  %49 = load ptr, ptr %48, align 8
  %50 = getelementptr inbounds nuw %struct.DecodedXLogRecord, ptr %49, i32 0, i32 6
  %51 = load i16, ptr %50, align 8
  %52 = call zeroext i1 @FilterByOrigin(ptr noundef %46, i16 noundef zeroext %51)
  br i1 %52, label %53, label %54

53:                                               ; preds = %45
  store i32 1, ptr %12, align 4
  br label %186

54:                                               ; preds = %45
  %55 = load ptr, ptr %5, align 8
  %56 = call ptr @XLogRecGetBlockData(ptr noundef %55, i8 noundef zeroext 0, ptr noundef %10)
  store ptr %56, ptr %9, align 8
  %57 = load ptr, ptr %9, align 8
  store ptr %57, ptr %8, align 8
  store i32 0, ptr %7, align 4
  br label %58

58:                                               ; preds = %182, %54
  %59 = load i32, ptr %7, align 4
  %60 = load ptr, ptr %6, align 8
  %61 = getelementptr inbounds nuw %struct.xl_heap_multi_insert, ptr %60, i32 0, i32 1
  %62 = load i16, ptr %61, align 2
  %63 = zext i16 %62 to i32
  %64 = icmp slt i32 %59, %63
  br i1 %64, label %65, label %185

65:                                               ; preds = %58
  call void @llvm.lifetime.start.p0(i64 8, ptr %13) #8
  call void @llvm.lifetime.start.p0(i64 8, ptr %14) #8
  call void @llvm.lifetime.start.p0(i64 4, ptr %15) #8
  call void @llvm.lifetime.start.p0(i64 8, ptr %16) #8
  call void @llvm.lifetime.start.p0(i64 8, ptr %17) #8
  %66 = load ptr, ptr %3, align 8
  %67 = getelementptr inbounds nuw %struct.LogicalDecodingContext, ptr %66, i32 0, i32 3
  %68 = load ptr, ptr %67, align 8
  %69 = call ptr @ReorderBufferGetChange(ptr noundef %68)
  store ptr %69, ptr %13, align 8
  %70 = load ptr, ptr %13, align 8
  %71 = getelementptr inbounds nuw %struct.ReorderBufferChange, ptr %70, i32 0, i32 1
  store i32 0, ptr %71, align 8
  %72 = load ptr, ptr %5, align 8
  %73 = getelementptr inbounds nuw %struct.XLogReaderState, ptr %72, i32 0, i32 11
  %74 = load ptr, ptr %73, align 8
  %75 = getelementptr inbounds nuw %struct.DecodedXLogRecord, ptr %74, i32 0, i32 6
  %76 = load i16, ptr %75, align 8
  %77 = load ptr, ptr %13, align 8
  %78 = getelementptr inbounds nuw %struct.ReorderBufferChange, ptr %77, i32 0, i32 3
  store i16 %76, ptr %78, align 8
  %79 = load ptr, ptr %13, align 8
  %80 = getelementptr inbounds nuw %struct.ReorderBufferChange, ptr %79, i32 0, i32 4
  %81 = getelementptr inbounds nuw %struct.anon, ptr %80, i32 0, i32 0
  call void @llvm.memcpy.p0.p0.i64(ptr align 8 %81, ptr align 4 %11, i64 12, i1 false)
  %82 = load ptr, ptr %8, align 8
  %83 = ptrtoint ptr %82 to i64
  %84 = add i64 %83, 1
  %85 = and i64 %84, -2
  %86 = inttoptr i64 %85 to ptr
  store ptr %86, ptr %14, align 8
  %87 = load ptr, ptr %14, align 8
  %88 = getelementptr inbounds nuw i8, ptr %87, i64 7
  store ptr %88, ptr %8, align 8
  %89 = load ptr, ptr %14, align 8
  %90 = getelementptr inbounds nuw %struct.xl_multi_insert_tuple, ptr %89, i32 0, i32 0
  %91 = load i16, ptr %90, align 2
  %92 = zext i16 %91 to i32
  store i32 %92, ptr %15, align 4
  %93 = load ptr, ptr %3, align 8
  %94 = getelementptr inbounds nuw %struct.LogicalDecodingContext, ptr %93, i32 0, i32 3
  %95 = load ptr, ptr %94, align 8
  %96 = load i32, ptr %15, align 4
  %97 = sext i32 %96 to i64
  %98 = call ptr @ReorderBufferGetTupleBuf(ptr noundef %95, i64 noundef %97)
  %99 = load ptr, ptr %13, align 8
  %100 = getelementptr inbounds nuw %struct.ReorderBufferChange, ptr %99, i32 0, i32 4
  %101 = getelementptr inbounds nuw %struct.anon, ptr %100, i32 0, i32 3
  store ptr %98, ptr %101, align 8
  %102 = load ptr, ptr %13, align 8
  %103 = getelementptr inbounds nuw %struct.ReorderBufferChange, ptr %102, i32 0, i32 4
  %104 = getelementptr inbounds nuw %struct.anon, ptr %103, i32 0, i32 3
  %105 = load ptr, ptr %104, align 8
  store ptr %105, ptr %16, align 8
  %106 = load ptr, ptr %16, align 8
  %107 = getelementptr inbounds nuw %struct.HeapTupleData, ptr %106, i32 0, i32 3
  %108 = load ptr, ptr %107, align 8
  store ptr %108, ptr %17, align 8
  %109 = load ptr, ptr %16, align 8
  %110 = getelementptr inbounds nuw %struct.HeapTupleData, ptr %109, i32 0, i32 1
  call void @ItemPointerSetInvalid(ptr noundef %110)
  %111 = load ptr, ptr %16, align 8
  %112 = getelementptr inbounds nuw %struct.HeapTupleData, ptr %111, i32 0, i32 2
  store i32 0, ptr %112, align 4
  %113 = load i32, ptr %15, align 4
  %114 = sext i32 %113 to i64
  %115 = add i64 %114, 23
  %116 = trunc i64 %115 to i32
  %117 = load ptr, ptr %16, align 8
  %118 = getelementptr inbounds nuw %struct.HeapTupleData, ptr %117, i32 0, i32 0
  store i32 %116, ptr %118, align 8
  %119 = load ptr, ptr %17, align 8
  call void @llvm.memset.p0.i64(ptr align 4 %119, i8 0, i64 23, i1 false)
  %120 = load ptr, ptr %16, align 8
  %121 = getelementptr inbounds nuw %struct.HeapTupleData, ptr %120, i32 0, i32 3
  %122 = load ptr, ptr %121, align 8
  %123 = getelementptr inbounds nuw i8, ptr %122, i64 23
  %124 = load ptr, ptr %8, align 8
  %125 = load i32, ptr %15, align 4
  %126 = sext i32 %125 to i64
  call void @llvm.memcpy.p0.p0.i64(ptr align 1 %123, ptr align 1 %124, i64 %126, i1 false)
  %127 = load ptr, ptr %14, align 8
  %128 = getelementptr inbounds nuw %struct.xl_multi_insert_tuple, ptr %127, i32 0, i32 2
  %129 = load i16, ptr %128, align 2
  %130 = load ptr, ptr %17, align 8
  %131 = getelementptr inbounds nuw %struct.HeapTupleHeaderData, ptr %130, i32 0, i32 3
  store i16 %129, ptr %131, align 4
  %132 = load ptr, ptr %14, align 8
  %133 = getelementptr inbounds nuw %struct.xl_multi_insert_tuple, ptr %132, i32 0, i32 1
  %134 = load i16, ptr %133, align 2
  %135 = load ptr, ptr %17, align 8
  %136 = getelementptr inbounds nuw %struct.HeapTupleHeaderData, ptr %135, i32 0, i32 2
  store i16 %134, ptr %136, align 2
  %137 = load ptr, ptr %14, align 8
  %138 = getelementptr inbounds nuw %struct.xl_multi_insert_tuple, ptr %137, i32 0, i32 3
  %139 = load i8, ptr %138, align 2
  %140 = load ptr, ptr %17, align 8
  %141 = getelementptr inbounds nuw %struct.HeapTupleHeaderData, ptr %140, i32 0, i32 4
  store i8 %139, ptr %141, align 2
  %142 = load ptr, ptr %6, align 8
  %143 = getelementptr inbounds nuw %struct.xl_heap_multi_insert, ptr %142, i32 0, i32 0
  %144 = load i8, ptr %143, align 2
  %145 = zext i8 %144 to i32
  %146 = and i32 %145, 2
  %147 = icmp ne i32 %146, 0
  br i1 %147, label %148, label %160

148:                                              ; preds = %65
  %149 = load i32, ptr %7, align 4
  %150 = add i32 %149, 1
  %151 = load ptr, ptr %6, align 8
  %152 = getelementptr inbounds nuw %struct.xl_heap_multi_insert, ptr %151, i32 0, i32 1
  %153 = load i16, ptr %152, align 2
  %154 = zext i16 %153 to i32
  %155 = icmp eq i32 %150, %154
  br i1 %155, label %156, label %160

156:                                              ; preds = %148
  %157 = load ptr, ptr %13, align 8
  %158 = getelementptr inbounds nuw %struct.ReorderBufferChange, ptr %157, i32 0, i32 4
  %159 = getelementptr inbounds nuw %struct.anon, ptr %158, i32 0, i32 1
  store i8 1, ptr %159, align 4
  br label %164

160:                                              ; preds = %148, %65
  %161 = load ptr, ptr %13, align 8
  %162 = getelementptr inbounds nuw %struct.ReorderBufferChange, ptr %161, i32 0, i32 4
  %163 = getelementptr inbounds nuw %struct.anon, ptr %162, i32 0, i32 1
  store i8 0, ptr %163, align 4
  br label %164

164:                                              ; preds = %160, %156
  %165 = load ptr, ptr %3, align 8
  %166 = getelementptr inbounds nuw %struct.LogicalDecodingContext, ptr %165, i32 0, i32 3
  %167 = load ptr, ptr %166, align 8
  %168 = load ptr, ptr %5, align 8
  %169 = getelementptr inbounds nuw %struct.XLogReaderState, ptr %168, i32 0, i32 11
  %170 = load ptr, ptr %169, align 8
  %171 = getelementptr inbounds nuw %struct.DecodedXLogRecord, ptr %170, i32 0, i32 5
  %172 = getelementptr inbounds nuw %struct.XLogRecord, ptr %171, i32 0, i32 1
  %173 = load i32, ptr %172, align 4
  %174 = load ptr, ptr %4, align 8
  %175 = getelementptr inbounds nuw %struct.XLogRecordBuffer, ptr %174, i32 0, i32 0
  %176 = load i64, ptr %175, align 8
  %177 = load ptr, ptr %13, align 8
  call void @ReorderBufferQueueChange(ptr noundef %167, i32 noundef %173, i64 noundef %176, ptr noundef %177, i1 noundef zeroext false)
  %178 = load i32, ptr %15, align 4
  %179 = load ptr, ptr %8, align 8
  %180 = sext i32 %178 to i64
  %181 = getelementptr inbounds i8, ptr %179, i64 %180
  store ptr %181, ptr %8, align 8
  call void @llvm.lifetime.end.p0(i64 8, ptr %17) #8
  call void @llvm.lifetime.end.p0(i64 8, ptr %16) #8
  call void @llvm.lifetime.end.p0(i64 4, ptr %15) #8
  call void @llvm.lifetime.end.p0(i64 8, ptr %14) #8
  call void @llvm.lifetime.end.p0(i64 8, ptr %13) #8
  br label %182

182:                                              ; preds = %164
  %183 = load i32, ptr %7, align 4
  %184 = add i32 %183, 1
  store i32 %184, ptr %7, align 4
  br label %58, !llvm.loop !11

185:                                              ; preds = %58
  store i32 0, ptr %12, align 4
  br label %186

186:                                              ; preds = %185, %53, %44, %32
  call void @llvm.lifetime.end.p0(i64 12, ptr %11) #8
  call void @llvm.lifetime.end.p0(i64 8, ptr %10) #8
  call void @llvm.lifetime.end.p0(i64 8, ptr %9) #8
  call void @llvm.lifetime.end.p0(i64 8, ptr %8) #8
  call void @llvm.lifetime.end.p0(i64 4, ptr %7) #8
  call void @llvm.lifetime.end.p0(i64 8, ptr %6) #8
  call void @llvm.lifetime.end.p0(i64 8, ptr %5) #8
  %187 = load i32, ptr %12, align 4
  switch i32 %187, label %189 [
    i32 0, label %188
    i32 1, label %188
  ]

188:                                              ; preds = %186, %186
  ret void

189:                                              ; preds = %186
  unreachable
}