; Function Attrs: nounwind uwtable
define internal fastcc void @DecodeMultiInsert(ptr noundef %0, ptr noundef readonly captures(none) %1) unnamed_addr #0 {
  %3 = alloca i64, align 8
  %4 = alloca %struct.RelFileLocator, align 4
  %5 = getelementptr inbounds nuw i8, ptr %1, i64 16
  %6 = load ptr, ptr %5, align 8
  call void @llvm.lifetime.start.p0(i64 8, ptr nonnull %3) #7
  call void @llvm.lifetime.start.p0(i64 12, ptr nonnull %4) #7
  %7 = getelementptr inbounds nuw i8, ptr %6, i64 104
  %8 = load ptr, ptr %7, align 8
  %9 = getelementptr inbounds nuw i8, ptr %8, i64 72
  %10 = load ptr, ptr %9, align 8
  %11 = load i8, ptr %10, align 2
  %12 = and i8 %11, 8
  %.not = icmp eq i8 %12, 0
  br i1 %.not, label %.loopexit, label %13

13:                                               ; preds = %2
  call void @XLogRecGetBlockTag(ptr noundef nonnull %6, i8 noundef zeroext 0, ptr noundef nonnull %4, ptr noundef null, ptr noundef null) #7
  %14 = getelementptr inbounds nuw i8, ptr %4, i64 4
  %15 = load i32, ptr %14, align 4
  %16 = getelementptr inbounds nuw i8, ptr %0, i64 8
  %17 = load ptr, ptr %16, align 8
  %18 = getelementptr inbounds nuw i8, ptr %17, i64 88
  %19 = load i32, ptr %18, align 8
  %.not50 = icmp eq i32 %15, %19
  br i1 %.not50, label %20, label %.loopexit

20:                                               ; preds = %13
  %21 = getelementptr inbounds nuw i8, ptr %0, i64 96
  %22 = load ptr, ptr %21, align 8
  %23 = icmp eq ptr %22, null
  br i1 %23, label %FilterByOrigin.exit.thread, label %FilterByOrigin.exit

FilterByOrigin.exit:                              ; preds = %20
  %24 = load ptr, ptr %7, align 8
  %25 = getelementptr inbounds nuw i8, ptr %24, i64 64
  %26 = load i16, ptr %25, align 8
  %27 = call zeroext i1 @filter_by_origin_cb_wrapper(ptr noundef nonnull %0, i16 noundef zeroext %26) #7
  br i1 %27, label %.loopexit, label %FilterByOrigin.exit.thread

FilterByOrigin.exit.thread:                       ; preds = %20, %FilterByOrigin.exit
  %28 = call ptr @XLogRecGetBlockData(ptr noundef nonnull %6, i8 noundef zeroext 0, ptr noundef nonnull %3) #7
  %29 = getelementptr inbounds nuw i8, ptr %10, i64 2
  %30 = load i16, ptr %29, align 2
  %.not56 = icmp eq i16 %30, 0
  br i1 %.not56, label %.loopexit, label %.lr.ph

.lr.ph:                                           ; preds = %FilterByOrigin.exit.thread
  %31 = getelementptr inbounds nuw i8, ptr %0, i64 24
  br label %32

32:                                               ; preds = %.lr.ph, %._crit_edge
  %.054 = phi i32 [ 0, %.lr.ph ], [ %.pre57, %._crit_edge ]
  %.04953 = phi ptr [ %28, %.lr.ph ], [ %82, %._crit_edge ]
  %33 = load ptr, ptr %31, align 8
  %34 = call ptr @ReorderBufferGetChange(ptr noundef %33) #7
  %35 = getelementptr inbounds nuw i8, ptr %34, i64 8
  store i32 0, ptr %35, align 8
  %36 = load ptr, ptr %7, align 8
  %37 = getelementptr inbounds nuw i8, ptr %36, i64 64
  %38 = load i16, ptr %37, align 8
  %39 = getelementptr inbounds nuw i8, ptr %34, i64 24
  store i16 %38, ptr %39, align 8
  %40 = getelementptr inbounds nuw i8, ptr %34, i64 32
  call void @llvm.memcpy.p0.p0.i64(ptr noundef nonnull align 8 dereferenceable(12) %40, ptr noundef nonnull align 4 dereferenceable(12) %4, i64 12, i1 false)
  %41 = ptrtoint ptr %.04953 to i64
  %42 = add i64 %41, 1
  %43 = and i64 %42, -2
  %44 = inttoptr i64 %43 to ptr
  %45 = getelementptr inbounds nuw i8, ptr %44, i64 7
  %46 = load i16, ptr %44, align 2
  %47 = load ptr, ptr %31, align 8
  %48 = zext i16 %46 to i64
  %49 = call ptr @ReorderBufferGetTupleBuf(ptr noundef %47, i64 noundef %48) #7
  %50 = getelementptr inbounds nuw i8, ptr %34, i64 56
  store ptr %49, ptr %50, align 8
  %51 = getelementptr inbounds nuw i8, ptr %49, i64 16
  %52 = load ptr, ptr %51, align 8
  %53 = getelementptr inbounds nuw i8, ptr %49, i64 4
  store i16 -1, ptr %53, align 2
  %54 = getelementptr inbounds nuw i8, ptr %49, i64 6
  store i16 -1, ptr %54, align 2
  %55 = getelementptr inbounds nuw i8, ptr %49, i64 8
  store i16 0, ptr %55, align 2
  %56 = getelementptr inbounds nuw i8, ptr %49, i64 12
  store i32 0, ptr %56, align 4
  %57 = zext i16 %46 to i32
  %58 = add nuw nsw i32 %57, 23
  store i32 %58, ptr %49, align 8
  call void @llvm.memset.p0.i64(ptr noundef nonnull align 4 dereferenceable(23) %52, i8 0, i64 23, i1 false)
  %59 = load ptr, ptr %51, align 8
  %60 = getelementptr inbounds nuw i8, ptr %59, i64 23
  call void @llvm.memcpy.p0.p0.i64(ptr nonnull align 1 %60, ptr nonnull align 1 %45, i64 %48, i1 false)
  %61 = getelementptr inbounds nuw i8, ptr %44, i64 4
  %62 = load i16, ptr %61, align 2
  %63 = getelementptr inbounds nuw i8, ptr %52, i64 20
  store i16 %62, ptr %63, align 4
  %64 = getelementptr inbounds nuw i8, ptr %44, i64 2
  %65 = load i16, ptr %64, align 2
  %66 = getelementptr inbounds nuw i8, ptr %52, i64 18
  store i16 %65, ptr %66, align 2
  %67 = getelementptr inbounds nuw i8, ptr %44, i64 6
  %68 = load i8, ptr %67, align 2
  %69 = getelementptr inbounds nuw i8, ptr %52, i64 22
  store i8 %68, ptr %69, align 2
  %70 = load i8, ptr %10, align 2
  %71 = and i8 %70, 2
  %.not51 = icmp eq i8 %71, 0
  %.pre57 = add nuw nsw i32 %.054, 1
  br i1 %.not51, label %._crit_edge, label %72

72:                                               ; preds = %32
  %73 = load i16, ptr %29, align 2
  %74 = zext i16 %73 to i32
  %75 = icmp eq i32 %.pre57, %74
  %spec.select = zext i1 %75 to i8
  br label %._crit_edge

._crit_edge:                                      ; preds = %72, %32
  %.sink = phi i8 [ 0, %32 ], [ %spec.select, %72 ]
  %76 = getelementptr inbounds nuw i8, ptr %34, i64 44
  store i8 %.sink, ptr %76, align 4
  %77 = load ptr, ptr %31, align 8
  %78 = load ptr, ptr %7, align 8
  %79 = getelementptr inbounds nuw i8, ptr %78, i64 44
  %80 = load i32, ptr %79, align 4
  %81 = load i64, ptr %1, align 8
  call void @ReorderBufferQueueChange(ptr noundef %77, i32 noundef %80, i64 noundef %81, ptr noundef nonnull %34, i1 noundef zeroext false) #7
  %82 = getelementptr inbounds nuw i8, ptr %45, i64 %48
  %83 = load i16, ptr %29, align 2
  %84 = zext i16 %83 to i32
  %85 = icmp samesign ult i32 %.pre57, %84
  br i1 %85, label %32, label %.loopexit, !llvm.loop !15

.loopexit:                                        ; preds = %._crit_edge, %FilterByOrigin.exit.thread, %FilterByOrigin.exit, %13, %2
  call void @llvm.lifetime.end.p0(i64 12, ptr nonnull %4) #7
  call void @llvm.lifetime.end.p0(i64 8, ptr nonnull %3) #7
  ret void
}